; Function Attrs: nounwind uwtable
define internal fastcc void @sh_setbit(ptr noundef %0, i32 noundef %1, ptr noundef captures(none) %2) unnamed_addr #0 {
  %4 = icmp sgt i32 %1, -1
  %5 = zext nneg i32 %1 to i64
  %6 = load i64, ptr getelementptr inbounds nuw (i8, ptr @sh, i64 40), align 8
  %7 = icmp sgt i64 %6, %5
  %or.cond = select i1 %4, i1 %7, i1 false
  br i1 %or.cond, label %9, label %8

8:                                                ; preds = %3
  tail call void @OPENSSL_die(ptr noundef nonnull @.str.7, ptr noundef nonnull @.str.1, i32 noundef 386) #9
  unreachable

9:                                                ; preds = %3
  %10 = load ptr, ptr getelementptr inbounds nuw (i8, ptr @sh, i64 16), align 8, !tbaa !22
  %11 = ptrtoint ptr %0 to i64
  %12 = ptrtoint ptr %10 to i64
  %13 = sub i64 %11, %12
  %14 = load i64, ptr getelementptr inbounds nuw (i8, ptr @sh, i64 24), align 8, !tbaa !7
  %15 = lshr i64 %14, %5
  %16 = add i64 %15, -1
  %17 = and i64 %16, %13
  %18 = icmp eq i64 %17, 0
  br i1 %18, label %20, label %19

19:                                               ; preds = %9
  tail call void @OPENSSL_die(ptr noundef nonnull @.str.8, ptr noundef nonnull @.str.1, i32 noundef 387) #9
  unreachable

20:                                               ; preds = %9
  %21 = shl nuw i64 1, %5
  %22 = udiv i64 %13, %15
  %23 = add i64 %22, %21
  %.not = icmp ne i64 %23, 0
  %24 = load i64, ptr getelementptr inbounds nuw (i8, ptr @sh, i64 72), align 8
  %25 = icmp ult i64 %23, %24
  %or.cond19 = select i1 %.not, i1 %25, i1 false
  br i1 %or.cond19, label %27, label %26

26:                                               ; preds = %20
  tail call void @OPENSSL_die(ptr noundef nonnull @.str.9, ptr noundef nonnull @.str.1, i32 noundef 389) #9
  unreachable

27:                                               ; preds = %20
  %28 = lshr i64 %23, 3
  %29 = getelementptr inbounds nuw i8, ptr %2, i64 %28
  %30 = load i8, ptr %29, align 1, !tbaa !30
  %31 = zext i8 %30 to i64
  %32 = and i64 %23, 7
  %33 = shl nuw nsw i64 1, %32
  %34 = and i64 %33, %31
  %.not15 = icmp eq i64 %34, 0
  br i1 %.not15, label %36, label %35

35:                                               ; preds = %27
  tail call void @OPENSSL_die(ptr noundef nonnull @.str.10, ptr noundef nonnull @.str.1, i32 noundef 390) #9
  unreachable

36:                                               ; preds = %27
  %37 = trunc nuw i64 %33 to i8
  %38 = or i8 %30, %37
  store i8 %38, ptr %29, align 1, !tbaa !30
  ret void
}